; Function Attrs: nounwind uwtable
define dso_local void @sq_quote_argv_pretty(ptr noundef %0, ptr noundef readonly captures(none) %1) local_unnamed_addr #0 {
  %3 = load ptr, ptr %1, align 8, !tbaa !17
  %.not = icmp eq ptr %3, null
  br i1 %.not, label %16, label %4

4:                                                ; preds = %2
  %5 = load i64, ptr %0, align 8, !tbaa !11
  %.not.i.i = icmp eq i64 %5, 0
  br i1 %.not.i.i, label %strbuf_avail.exit.thread.i, label %strbuf_avail.exit.i

strbuf_avail.exit.i:                              ; preds = %4
  %6 = getelementptr inbounds nuw i8, ptr %0, i64 8
  %7 = load i64, ptr %6, align 8, !tbaa !12
  %.neg.i = add i64 %7, 1
  %.not.i = icmp eq i64 %5, %.neg.i
  br i1 %.not.i, label %strbuf_avail.exit.thread.i, label %strbuf_addch.exit

strbuf_avail.exit.thread.i:                       ; preds = %strbuf_avail.exit.i, %4
  tail call void @strbuf_grow(ptr noundef nonnull %0, i64 noundef 1) #12
  %.phi.trans.insert.i = getelementptr inbounds nuw i8, ptr %0, i64 8
  %.pre.i = load i64, ptr %.phi.trans.insert.i, align 8, !tbaa !12
  %.pre7.i = add i64 %.pre.i, 1
  br label %strbuf_addch.exit

strbuf_addch.exit:                                ; preds = %strbuf_avail.exit.i, %strbuf_avail.exit.thread.i
  %.pre-phi.i = phi i64 [ %.pre7.i, %strbuf_avail.exit.thread.i ], [ %.neg.i, %strbuf_avail.exit.i ]
  %8 = phi i64 [ %.pre.i, %strbuf_avail.exit.thread.i ], [ %7, %strbuf_avail.exit.i ]
  %9 = getelementptr inbounds nuw i8, ptr %0, i64 16
  %10 = load ptr, ptr %9, align 8, !tbaa !4
  %11 = getelementptr inbounds nuw i8, ptr %0, i64 8
  store i64 %.pre-phi.i, ptr %11, align 8, !tbaa !12
  %12 = getelementptr inbounds nuw i8, ptr %10, i64 %8
  store i8 32, ptr %12, align 1, !tbaa !13
  %13 = load ptr, ptr %9, align 8, !tbaa !4
  %14 = load i64, ptr %11, align 8, !tbaa !12
  %15 = getelementptr inbounds nuw i8, ptr %13, i64 %14
  store i8 0, ptr %15, align 1, !tbaa !13
  br label %16

16:                                               ; preds = %strbuf_addch.exit, %2
  tail call void @sq_append_quote_argv_pretty(ptr noundef %0, ptr noundef nonnull %1)
  ret void
}